target datalayout = "e-m:e-p270:32:32-p271:32:32-p272:64:64-i64:64-i128:128-f80:128-n8:16:32:64-S128"
target triple = "x86_64-pc-linux-gnu"

%"class.o3dgc::Vector.0" = type { ptr, i64, i64 }
%"class.o3dgc::CompressedTriangleFans" = type <{ %"class.o3dgc::Vector.0", %"class.o3dgc::Vector.0", %"class.o3dgc::Vector.0", %"class.o3dgc::Vector.0", %"class.o3dgc::Vector.0", %"class.o3dgc::Vector.0", ptr, i64, i32, [4 x i8] }>

; Function Attrs: mustprogress uwtable
define hidden noundef i32 @_ZN5o3dgc22CompressedTriangleFans4LoadERKNS_12BinaryStreamERmbNS_15O3DGCStreamTypeE(ptr noundef nonnull align 8 dereferenceable(164) %0, ptr noundef nonnull align 8 dereferenceable(28) %1, ptr noundef nonnull align 8 dereferenceable(8) %2, i1 noundef zeroext %3, i32 noundef %4) #0 align 2 {
  %6 = alloca ptr, align 8
  %7 = alloca ptr, align 8
  %8 = alloca ptr, align 8
  %9 = alloca i8, align 1
  %10 = alloca i32, align 4
  store ptr %0, ptr %6, align 8
  store ptr %1, ptr %7, align 8
  store ptr %2, ptr %8, align 8
  %11 = zext i1 %3 to i8
  store i8 %11, ptr %9, align 1
  store i32 %4, ptr %10, align 4
  %12 = load ptr, ptr %6, align 8
  %13 = load i32, ptr %10, align 4
  %14 = icmp eq i32 %13, 1
  br i1 %14, label %15, label %44

15:                                               ; preds = %5
  %16 = getelementptr inbounds nuw %"class.o3dgc::CompressedTriangleFans", ptr %12, i32 0, i32 0
  %17 = load ptr, ptr %7, align 8
  %18 = load ptr, ptr %8, align 8
  %19 = call noundef i32 @_ZN5o3dgc12LoadUIntDataERNS_6VectorIlEERKNS_12BinaryStreamERm(ptr noundef nonnull align 8 dereferenceable(24) %16, ptr noundef nonnull align 8 dereferenceable(28) %17, ptr noundef nonnull align 8 dereferenceable(8) %18)
  %20 = getelementptr inbounds nuw %"class.o3dgc::CompressedTriangleFans", ptr %12, i32 0, i32 1
  %21 = load ptr, ptr %7, align 8
  %22 = load ptr, ptr %8, align 8
  %23 = call noundef i32 @_ZN5o3dgc12LoadUIntDataERNS_6VectorIlEERKNS_12BinaryStreamERm(ptr noundef nonnull align 8 dereferenceable(24) %20, ptr noundef nonnull align 8 dereferenceable(28) %21, ptr noundef nonnull align 8 dereferenceable(8) %22)
  %24 = getelementptr inbounds nuw %"class.o3dgc::CompressedTriangleFans", ptr %12, i32 0, i32 2
  %25 = load ptr, ptr %7, align 8
  %26 = load ptr, ptr %8, align 8
  %27 = call noundef i32 @_ZN5o3dgc12LoadUIntDataERNS_6VectorIlEERKNS_12BinaryStreamERm(ptr noundef nonnull align 8 dereferenceable(24) %24, ptr noundef nonnull align 8 dereferenceable(28) %25, ptr noundef nonnull align 8 dereferenceable(8) %26)
  %28 = getelementptr inbounds nuw %"class.o3dgc::CompressedTriangleFans", ptr %12, i32 0, i32 3
  %29 = load ptr, ptr %7, align 8
  %30 = load ptr, ptr %8, align 8
  %31 = call noundef i32 @_ZN5o3dgc11LoadBinDataERNS_6VectorIlEERKNS_12BinaryStreamERm(ptr noundef nonnull align 8 dereferenceable(24) %28, ptr noundef nonnull align 8 dereferenceable(28) %29, ptr noundef nonnull align 8 dereferenceable(8) %30)
  %32 = getelementptr inbounds nuw %"class.o3dgc::CompressedTriangleFans", ptr %12, i32 0, i32 4
  %33 = load ptr, ptr %7, align 8
  %34 = load ptr, ptr %8, align 8
  %35 = call noundef i32 @_ZN5o3dgc11LoadIntDataERNS_6VectorIlEERKNS_12BinaryStreamERm(ptr noundef nonnull align 8 dereferenceable(24) %32, ptr noundef nonnull align 8 dereferenceable(28) %33, ptr noundef nonnull align 8 dereferenceable(8) %34)
  %36 = load i8, ptr %9, align 1, !range !21, !noundef !22
  %37 = trunc i8 %36 to i1
  br i1 %37, label %38, label %43

38:                                               ; preds = %15
  %39 = getelementptr inbounds nuw %"class.o3dgc::CompressedTriangleFans", ptr %12, i32 0, i32 5
  %40 = load ptr, ptr %7, align 8
  %41 = load ptr, ptr %8, align 8
  %42 = call noundef i32 @_ZN5o3dgc12LoadUIntDataERNS_6VectorIlEERKNS_12BinaryStreamERm(ptr noundef nonnull align 8 dereferenceable(24) %39, ptr noundef nonnull align 8 dereferenceable(28) %40, ptr noundef nonnull align 8 dereferenceable(8) %41)
  br label %43

43:                                               ; preds = %38, %15
  br label %73

44:                                               ; preds = %5
  %45 = getelementptr inbounds nuw %"class.o3dgc::CompressedTriangleFans", ptr %12, i32 0, i32 0
  %46 = load ptr, ptr %7, align 8
  %47 = load ptr, ptr %8, align 8
  %48 = call noundef i32 @_ZN5o3dgc12LoadIntACEGCERNS_6VectorIlEEmRKNS_12BinaryStreamERm(ptr noundef nonnull align 8 dereferenceable(24) %45, i64 noundef 4, ptr noundef nonnull align 8 dereferenceable(28) %46, ptr noundef nonnull align 8 dereferenceable(8) %47)
  %49 = getelementptr inbounds nuw %"class.o3dgc::CompressedTriangleFans", ptr %12, i32 0, i32 1
  %50 = load ptr, ptr %7, align 8
  %51 = load ptr, ptr %8, align 8
  %52 = call noundef i32 @_ZN5o3dgc12LoadIntACEGCERNS_6VectorIlEEmRKNS_12BinaryStreamERm(ptr noundef nonnull align 8 dereferenceable(24) %49, i64 noundef 16, ptr noundef nonnull align 8 dereferenceable(28) %50, ptr noundef nonnull align 8 dereferenceable(8) %51)
  %53 = getelementptr inbounds nuw %"class.o3dgc::CompressedTriangleFans", ptr %12, i32 0, i32 2
  %54 = load ptr, ptr %7, align 8
  %55 = load ptr, ptr %8, align 8
  %56 = call noundef i32 @_ZN5o3dgc10LoadUIntACERNS_6VectorIlEEmRKNS_12BinaryStreamERm(ptr noundef nonnull align 8 dereferenceable(24) %53, i64 noundef 10, ptr noundef nonnull align 8 dereferenceable(28) %54, ptr noundef nonnull align 8 dereferenceable(8) %55)
  %57 = getelementptr inbounds nuw %"class.o3dgc::CompressedTriangleFans", ptr %12, i32 0, i32 3
  %58 = load ptr, ptr %7, align 8
  %59 = load ptr, ptr %8, align 8
  %60 = call noundef i32 @_ZN5o3dgc9LoadBinACERNS_6VectorIlEERKNS_12BinaryStreamERm(ptr noundef nonnull align 8 dereferenceable(24) %57, ptr noundef nonnull align 8 dereferenceable(28) %58, ptr noundef nonnull align 8 dereferenceable(8) %59)
  %61 = getelementptr inbounds nuw %"class.o3dgc::CompressedTriangleFans", ptr %12, i32 0, i32 4
  %62 = load ptr, ptr %7, align 8
  %63 = load ptr, ptr %8, align 8
  %64 = call noundef i32 @_ZN5o3dgc12LoadIntACEGCERNS_6VectorIlEEmRKNS_12BinaryStreamERm(ptr noundef nonnull align 8 dereferenceable(24) %61, i64 noundef 8, ptr noundef nonnull align 8 dereferenceable(28) %62, ptr noundef nonnull align 8 dereferenceable(8) %63)
  %65 = load i8, ptr %9, align 1, !range !21, !noundef !22
  %66 = trunc i8 %65 to i1
  br i1 %66, label %67, label %72

67:                                               ; preds = %44
  %68 = getelementptr inbounds nuw %"class.o3dgc::CompressedTriangleFans", ptr %12, i32 0, i32 5
  %69 = load ptr, ptr %7, align 8
  %70 = load ptr, ptr %8, align 8
  %71 = call noundef i32 @_ZN5o3dgc12LoadIntACEGCERNS_6VectorIlEEmRKNS_12BinaryStreamERm(ptr noundef nonnull align 8 dereferenceable(24) %68, i64 noundef 16, ptr noundef nonnull align 8 dereferenceable(28) %69, ptr noundef nonnull align 8 dereferenceable(8) %70)
  br label %72

72:                                               ; preds = %67, %44
  br label %73

73:                                               ; preds = %72, %43
  ret i32 0
}