; Function Attrs: mustprogress uwtable
define hidden noundef i32 @_ZN5o3dgc22CompressedTriangleFans4LoadERKNS_12BinaryStreamERmbNS_15O3DGCStreamTypeE(ptr noundef nonnull align 8 captures(none) dereferenceable(164) %0, ptr noundef nonnull readonly align 8 captures(none) dereferenceable(28) %1, ptr noundef nonnull align 8 captures(none) dereferenceable(8) %2, i1 noundef zeroext %3, i32 noundef %4) local_unnamed_addr #0 align 2 {
  %6 = icmp eq i32 %4, 1
  %7 = getelementptr inbounds nuw i8, ptr %0, i64 24
  %8 = getelementptr inbounds nuw i8, ptr %0, i64 48
  %9 = getelementptr inbounds nuw i8, ptr %0, i64 72
  %10 = getelementptr inbounds nuw i8, ptr %0, i64 96
  br i1 %6, label %11, label %20

11:                                               ; preds = %5
  %12 = tail call noundef i32 @_ZN5o3dgc12LoadUIntDataERNS_6VectorIlEERKNS_12BinaryStreamERm(ptr noundef nonnull align 8 dereferenceable(24) %0, ptr noundef nonnull align 8 dereferenceable(28) %1, ptr noundef nonnull align 8 dereferenceable(8) %2)
  %13 = tail call noundef i32 @_ZN5o3dgc12LoadUIntDataERNS_6VectorIlEERKNS_12BinaryStreamERm(ptr noundef nonnull align 8 dereferenceable(24) %7, ptr noundef nonnull align 8 dereferenceable(28) %1, ptr noundef nonnull align 8 dereferenceable(8) %2)
  %14 = tail call noundef i32 @_ZN5o3dgc12LoadUIntDataERNS_6VectorIlEERKNS_12BinaryStreamERm(ptr noundef nonnull align 8 dereferenceable(24) %8, ptr noundef nonnull align 8 dereferenceable(28) %1, ptr noundef nonnull align 8 dereferenceable(8) %2)
  %15 = tail call noundef i32 @_ZN5o3dgc11LoadBinDataERNS_6VectorIlEERKNS_12BinaryStreamERm(ptr noundef nonnull align 8 dereferenceable(24) %9, ptr noundef nonnull align 8 dereferenceable(28) %1, ptr noundef nonnull align 8 dereferenceable(8) %2)
  %16 = tail call noundef i32 @_ZN5o3dgc11LoadIntDataERNS_6VectorIlEERKNS_12BinaryStreamERm(ptr noundef nonnull align 8 dereferenceable(24) %10, ptr noundef nonnull align 8 dereferenceable(28) %1, ptr noundef nonnull align 8 dereferenceable(8) %2)
  br i1 %3, label %17, label %29

17:                                               ; preds = %11
  %18 = getelementptr inbounds nuw i8, ptr %0, i64 120
  %19 = tail call noundef i32 @_ZN5o3dgc12LoadUIntDataERNS_6VectorIlEERKNS_12BinaryStreamERm(ptr noundef nonnull align 8 dereferenceable(24) %18, ptr noundef nonnull align 8 dereferenceable(28) %1, ptr noundef nonnull align 8 dereferenceable(8) %2)
  br label %29

20:                                               ; preds = %5
  %21 = tail call noundef i32 @_ZN5o3dgc12LoadIntACEGCERNS_6VectorIlEEmRKNS_12BinaryStreamERm(ptr noundef nonnull align 8 dereferenceable(24) %0, i64 noundef 4, ptr noundef nonnull align 8 dereferenceable(28) %1, ptr noundef nonnull align 8 dereferenceable(8) %2)
  %22 = tail call noundef i32 @_ZN5o3dgc12LoadIntACEGCERNS_6VectorIlEEmRKNS_12BinaryStreamERm(ptr noundef nonnull align 8 dereferenceable(24) %7, i64 noundef 16, ptr noundef nonnull align 8 dereferenceable(28) %1, ptr noundef nonnull align 8 dereferenceable(8) %2)
  %23 = tail call noundef i32 @_ZN5o3dgc10LoadUIntACERNS_6VectorIlEEmRKNS_12BinaryStreamERm(ptr noundef nonnull align 8 dereferenceable(24) %8, i64 noundef 10, ptr noundef nonnull align 8 dereferenceable(28) %1, ptr noundef nonnull align 8 dereferenceable(8) %2)
  %24 = tail call noundef i32 @_ZN5o3dgc9LoadBinACERNS_6VectorIlEERKNS_12BinaryStreamERm(ptr noundef nonnull align 8 dereferenceable(24) %9, ptr noundef nonnull align 8 dereferenceable(28) %1, ptr noundef nonnull align 8 dereferenceable(8) %2)
  %25 = tail call noundef i32 @_ZN5o3dgc12LoadIntACEGCERNS_6VectorIlEEmRKNS_12BinaryStreamERm(ptr noundef nonnull align 8 dereferenceable(24) %10, i64 noundef 8, ptr noundef nonnull align 8 dereferenceable(28) %1, ptr noundef nonnull align 8 dereferenceable(8) %2)
  br i1 %3, label %26, label %29

26:                                               ; preds = %20
  %27 = getelementptr inbounds nuw i8, ptr %0, i64 120
  %28 = tail call noundef i32 @_ZN5o3dgc12LoadIntACEGCERNS_6VectorIlEEmRKNS_12BinaryStreamERm(ptr noundef nonnull align 8 dereferenceable(24) %27, i64 noundef 16, ptr noundef nonnull align 8 dereferenceable(28) %1, ptr noundef nonnull align 8 dereferenceable(8) %2)
  br label %29

29:                                               ; preds = %20, %26, %11, %17
  ret i32 0
}